target datalayout = "e-m:e-p270:32:32-p271:32:32-p272:64:64-i64:64-i128:128-f80:128-n8:16:32:64-S128"
target triple = "x86_64-pc-linux-gnu"

%"struct.std::_Rb_tree_header" = type { %"struct.std::_Rb_tree_node_base", i64 }
%"struct.std::_Rb_tree_node_base" = type { i32, ptr, ptr, ptr }
%"class.casadi::Function" = type { %"class.casadi::SharedObject" }
%"class.casadi::SharedObject" = type { %"class.casadi::GenericShared" }
%"class.casadi::GenericShared" = type { ptr }
%"class.std::vector" = type { %"struct.std::_Vector_base" }
%"struct.std::_Vector_base" = type { %"struct.std::_Vector_base<std::__cxx11::basic_string<char>, std::allocator<std::__cxx11::basic_string<char>>>::_Vector_impl" }
%"struct.std::_Vector_base<std::__cxx11::basic_string<char>, std::allocator<std::__cxx11::basic_string<char>>>::_Vector_impl" = type { %"struct.std::_Vector_base<std::__cxx11::basic_string<char>, std::allocator<std::__cxx11::basic_string<char>>>::_Vector_impl_data" }
%"struct.std::_Vector_base<std::__cxx11::basic_string<char>, std::allocator<std::__cxx11::basic_string<char>>>::_Vector_impl_data" = type { ptr, ptr, ptr }
%"class.std::map" = type { %"class.std::_Rb_tree" }
%"class.std::_Rb_tree" = type { %"struct.std::_Rb_tree<std::__cxx11::basic_string<char>, std::pair<const std::__cxx11::basic_string<char>, casadi::GenericType>, std::_Select1st<std::pair<const std::__cxx11::basic_string<char>, casadi::GenericType>>, std::less<std::__cxx11::basic_string<char>>>::_Rb_tree_impl" }
%"struct.std::_Rb_tree<std::__cxx11::basic_string<char>, std::pair<const std::__cxx11::basic_string<char>, casadi::GenericType>, std::_Select1st<std::pair<const std::__cxx11::basic_string<char>, casadi::GenericType>>, std::less<std::__cxx11::basic_string<char>>>::_Rb_tree_impl" = type { [8 x i8], %"struct.std::_Rb_tree_header" }
%"class.std::__cxx11::basic_string" = type { %"struct.std::__cxx11::basic_string<char>::_Alloc_hider", i64, %union.anon }
%"struct.std::__cxx11::basic_string<char>::_Alloc_hider" = type { ptr }
%union.anon = type { i64, [8 x i8] }
%"class.casadi::Importer" = type { %"class.casadi::SharedObject" }
%"class.casadi::External" = type { %"class.casadi::FunctionInternal", %"class.casadi::Importer", ptr, ptr, ptr, ptr, ptr, ptr, ptr, ptr, ptr, %"class.std::vector.30", %"class.std::vector.35", %"class.std::__cxx11::basic_string", %"class.std::vector", %"class.std::vector.40" }
%"class.casadi::FunctionInternal" = type { %"class.casadi::ProtoFunction", i8, i8, i64, i64, %"class.std::vector.16", %"class.std::vector.16", %"class.std::vector.20", %"class.std::vector.20", %"class.std::vector", %"class.std::vector", i8, i8, %"class.std::__cxx11::basic_string", %"class.std::__cxx11::basic_string", %"class.std::__cxx11::basic_string", i8, ptr, ptr, ptr, %"class.std::map", i8, %"class.std::map", %"class.casadi::WeakCache", [2 x %"class.std::vector.20"], %"class.casadi::Function", ptr, %"class.std::__cxx11::basic_string", %"class.casadi::Importer", %"class.std::map", double, i8, i8, i8, i8, i8, i8, i8, i8, double, double, i64, i8, %"class.std::map", double, %"class.std::__cxx11::basic_string", i8, i8, i64, i8, i8, i8, %"class.std::__cxx11::basic_string", %"class.std::__cxx11::basic_string", %"class.std::map", %"class.std::map", %"class.std::map", %"class.std::map", %"class.casadi::Function", i64, i64, i64, i64, i64, i64, i64, i64, i64 }
%"class.casadi::ProtoFunction" = type { %"class.casadi::SharedObjectInternal", %"class.std::__cxx11::basic_string", i8, i8, i8, i8, i8, %"class.std::vector.8", %"class.std::stack" }
%"class.casadi::SharedObjectInternal" = type { %"class.casadi::GenericSharedInternal", i64 }
%"class.casadi::GenericSharedInternal" = type { ptr, ptr }
%"class.std::vector.8" = type { %"struct.std::_Vector_base.9" }
%"struct.std::_Vector_base.9" = type { %"struct.std::_Vector_base<void *, std::allocator<void *>>::_Vector_impl" }
%"struct.std::_Vector_base<void *, std::allocator<void *>>::_Vector_impl" = type { %"struct.std::_Vector_base<void *, std::allocator<void *>>::_Vector_impl_data" }
%"struct.std::_Vector_base<void *, std::allocator<void *>>::_Vector_impl_data" = type { ptr, ptr, ptr }
%"class.std::stack" = type { %"class.std::deque" }
%"class.std::deque" = type { %"class.std::_Deque_base" }
%"class.std::_Deque_base" = type { %"struct.std::_Deque_base<int, std::allocator<int>>::_Deque_impl" }
%"struct.std::_Deque_base<int, std::allocator<int>>::_Deque_impl" = type { %"struct.std::_Deque_base<int, std::allocator<int>>::_Deque_impl_data" }
%"struct.std::_Deque_base<int, std::allocator<int>>::_Deque_impl_data" = type { ptr, i64, %"struct.std::_Deque_iterator", %"struct.std::_Deque_iterator" }
%"struct.std::_Deque_iterator" = type { ptr, ptr, ptr, ptr }
%"class.std::vector.16" = type { %"struct.std::_Bvector_base" }
%"struct.std::_Bvector_base" = type { %"struct.std::_Bvector_base<std::allocator<bool>>::_Bvector_impl" }
%"struct.std::_Bvector_base<std::allocator<bool>>::_Bvector_impl" = type { %"struct.std::_Bvector_base<std::allocator<bool>>::_Bvector_impl_data" }
%"struct.std::_Bvector_base<std::allocator<bool>>::_Bvector_impl_data" = type { %"struct.std::_Bit_iterator", %"struct.std::_Bit_iterator", ptr }
%"struct.std::_Bit_iterator" = type { %"struct.std::_Bit_iterator_base.base", [4 x i8] }
%"struct.std::_Bit_iterator_base.base" = type <{ ptr, i32 }>
%"class.std::vector.20" = type { %"struct.std::_Vector_base.21" }
%"struct.std::_Vector_base.21" = type { %"struct.std::_Vector_base<casadi::Sparsity, std::allocator<casadi::Sparsity>>::_Vector_impl" }
%"struct.std::_Vector_base<casadi::Sparsity, std::allocator<casadi::Sparsity>>::_Vector_impl" = type { %"struct.std::_Vector_base<casadi::Sparsity, std::allocator<casadi::Sparsity>>::_Vector_impl_data" }
%"struct.std::_Vector_base<casadi::Sparsity, std::allocator<casadi::Sparsity>>::_Vector_impl_data" = type { ptr, ptr, ptr }
%"class.casadi::WeakCache" = type { %"class.std::unordered_map" }
%"class.std::unordered_map" = type { %"class.std::_Hashtable" }
%"class.std::_Hashtable" = type { ptr, i64, %"struct.std::__detail::_Hash_node_base", i64, %"struct.std::__detail::_Prime_rehash_policy", ptr }
%"struct.std::__detail::_Hash_node_base" = type { ptr }
%"struct.std::__detail::_Prime_rehash_policy" = type { float, i64 }
%"class.std::vector.30" = type { %"struct.std::_Vector_base.31" }
%"struct.std::_Vector_base.31" = type { %"struct.std::_Vector_base<long long, std::allocator<long long>>::_Vector_impl" }
%"struct.std::_Vector_base<long long, std::allocator<long long>>::_Vector_impl" = type { %"struct.std::_Vector_base<long long, std::allocator<long long>>::_Vector_impl_data" }
%"struct.std::_Vector_base<long long, std::allocator<long long>>::_Vector_impl_data" = type { ptr, ptr, ptr }
%"class.std::vector.35" = type { %"struct.std::_Vector_base.36" }
%"struct.std::_Vector_base.36" = type { %"struct.std::_Vector_base<double, std::allocator<double>>::_Vector_impl" }
%"struct.std::_Vector_base<double, std::allocator<double>>::_Vector_impl" = type { %"struct.std::_Vector_base<double, std::allocator<double>>::_Vector_impl_data" }
%"struct.std::_Vector_base<double, std::allocator<double>>::_Vector_impl_data" = type { ptr, ptr, ptr }
%"class.std::vector.40" = type { %"struct.std::_Vector_base.41" }
%"struct.std::_Vector_base.41" = type { %"struct.std::_Vector_base<const char *, std::allocator<const char *>>::_Vector_impl" }
%"struct.std::_Vector_base<const char *, std::allocator<const char *>>::_Vector_impl" = type { %"struct.std::_Vector_base<const char *, std::allocator<const char *>>::_Vector_impl_data" }
%"struct.std::_Vector_base<const char *, std::allocator<const char *>>::_Vector_impl_data" = type { ptr, ptr, ptr }
%"class.casadi::GenericExternal" = type { %"class.casadi::External", ptr, ptr, ptr, ptr, ptr }

; Function Attrs: mustprogress nounwind uwtable
define noundef zeroext i1 @_ZNK6casadi8External16any_symbol_foundEv(ptr noundef nonnull align 8 dereferenceable(1520) %0) unnamed_addr #6 align 2 {
  %2 = alloca ptr, align 8
  store ptr %0, ptr %2, align 8, !tbaa !37
  %3 = load ptr, ptr %2, align 8
  %4 = getelementptr inbounds nuw %"class.casadi::External", ptr %3, i32 0, i32 2
  %5 = load ptr, ptr %4, align 8, !tbaa !47
  %6 = icmp ne ptr %5, null
  br i1 %6, label %39, label %7

7:                                                ; preds = %1
  %8 = getelementptr inbounds nuw %"class.casadi::External", ptr %3, i32 0, i32 3
  %9 = load ptr, ptr %8, align 8, !tbaa !123
  %10 = icmp ne ptr %9, null
  br i1 %10, label %39, label %11

11:                                               ; preds = %7
  %12 = getelementptr inbounds nuw %"class.casadi::External", ptr %3, i32 0, i32 4
  %13 = load ptr, ptr %12, align 8, !tbaa !124
  %14 = icmp ne ptr %13, null
  br i1 %14, label %39, label %15

15:                                               ; preds = %11
  %16 = getelementptr inbounds nuw %"class.casadi::External", ptr %3, i32 0, i32 9
  %17 = load ptr, ptr %16, align 8, !tbaa !125
  %18 = icmp ne ptr %17, null
  br i1 %18, label %39, label %19

19:                                               ; preds = %15
  %20 = getelementptr inbounds nuw %"class.casadi::External", ptr %3, i32 0, i32 5
  %21 = load ptr, ptr %20, align 8, !tbaa !126
  %22 = icmp ne ptr %21, null
  br i1 %22, label %39, label %23

23:                                               ; preds = %19
  %24 = getelementptr inbounds nuw %"class.casadi::External", ptr %3, i32 0, i32 6
  %25 = load ptr, ptr %24, align 8, !tbaa !127
  %26 = icmp ne ptr %25, null
  br i1 %26, label %39, label %27

27:                                               ; preds = %23
  %28 = getelementptr inbounds nuw %"class.casadi::External", ptr %3, i32 0, i32 7
  %29 = load ptr, ptr %28, align 8, !tbaa !128
  %30 = icmp ne ptr %29, null
  br i1 %30, label %39, label %31

31:                                               ; preds = %27
  %32 = getelementptr inbounds nuw %"class.casadi::External", ptr %3, i32 0, i32 8
  %33 = load ptr, ptr %32, align 8, !tbaa !129
  %34 = icmp ne ptr %33, null
  br i1 %34, label %39, label %35

35:                                               ; preds = %31
  %36 = getelementptr inbounds nuw %"class.casadi::External", ptr %3, i32 0, i32 10
  %37 = load ptr, ptr %36, align 8, !tbaa !130
  %38 = icmp ne ptr %37, null
  br label %39

39:                                               ; preds = %35, %31, %27, %23, %19, %15, %11, %7, %1
  %40 = phi i1 [ true, %31 ], [ true, %27 ], [ true, %23 ], [ true, %19 ], [ true, %15 ], [ true, %11 ], [ true, %7 ], [ true, %1 ], [ %38, %35 ]
  ret i1 %40
}

; Function Attrs: mustprogress nounwind uwtable
define noundef zeroext i1 @_ZNK6casadi15GenericExternal16any_symbol_foundEv(ptr noundef nonnull align 8 dereferenceable(1560) %0) unnamed_addr #6 align 2 {
  %2 = alloca ptr, align 8
  store ptr %0, ptr %2, align 8, !tbaa !145
  %3 = load ptr, ptr %2, align 8
  %4 = call noundef zeroext i1 @_ZNK6casadi8External16any_symbol_foundEv(ptr noundef nonnull align 8 dereferenceable(1520) %3)
  br i1 %4, label %33, label %5

5:                                                ; preds = %1
  %6 = getelementptr inbounds nuw %"class.casadi::GenericExternal", ptr %3, i32 0, i32 1
  %7 = load ptr, ptr %6, align 8, !tbaa !147
  %8 = icmp ne ptr %7, null
  br i1 %8, label %33, label %9

9:                                                ; preds = %5
  %10 = getelementptr inbounds nuw %"class.casadi::GenericExternal", ptr %3, i32 0, i32 2
  %11 = load ptr, ptr %10, align 8, !tbaa !149
  %12 = icmp ne ptr %11, null
  br i1 %12, label %33, label %13

13:                                               ; preds = %9
  %14 = getelementptr inbounds nuw %"class.casadi::GenericExternal", ptr %3, i32 0, i32 4
  %15 = load ptr, ptr %14, align 8, !tbaa !150
  %16 = icmp ne ptr %15, null
  br i1 %16, label %33, label %17

17:                                               ; preds = %13
  %18 = getelementptr inbounds nuw %"class.casadi::GenericExternal", ptr %3, i32 0, i32 5
  %19 = load ptr, ptr %18, align 8, !tbaa !151
  %20 = icmp ne ptr %19, null
  br i1 %20, label %33, label %21

21:                                               ; preds = %17
  %22 = getelementptr inbounds nuw %"class.casadi::FunctionInternal", ptr %3, i32 0, i32 18
  %23 = load ptr, ptr %22, align 8, !tbaa !152
  %24 = icmp ne ptr %23, null
  br i1 %24, label %33, label %25

25:                                               ; preds = %21
  %26 = getelementptr inbounds nuw %"class.casadi::FunctionInternal", ptr %3, i32 0, i32 19
  %27 = load ptr, ptr %26, align 8, !tbaa !153
  %28 = icmp ne ptr %27, null
  br i1 %28, label %33, label %29

29:                                               ; preds = %25
  %30 = getelementptr inbounds nuw %"class.casadi::FunctionInternal", ptr %3, i32 0, i32 17
  %31 = load ptr, ptr %30, align 8, !tbaa !154
  %32 = icmp ne ptr %31, null
  br label %33

33:                                               ; preds = %29, %25, %21, %17, %13, %9, %5, %1
  %34 = phi i1 [ true, %25 ], [ true, %21 ], [ true, %17 ], [ true, %13 ], [ true, %9 ], [ true, %5 ], [ true, %1 ], [ %32, %29 ]
  ret i1 %34
}