; Function Attrs: mustprogress nofree norecurse nosync nounwind willreturn memory(argmem: read) uwtable
define noundef zeroext i1 @_ZNK6casadi15GenericExternal16any_symbol_foundEv(ptr noundef nonnull readonly align 8 captures(none) dereferenceable(1560) %0) unnamed_addr #10 align 2 {
  %2 = getelementptr inbounds nuw i8, ptr %0, i64 1320
  %3 = load ptr, ptr %2, align 8, !tbaa !64
  %.not.i = icmp eq ptr %3, null
  %4 = getelementptr inbounds nuw i8, ptr %0, i64 1328
  %5 = load ptr, ptr %4, align 8
  %.not1.i = icmp eq ptr %5, null
  %or.cond.i = select i1 %.not.i, i1 %.not1.i, i1 false
  %6 = getelementptr inbounds nuw i8, ptr %0, i64 1336
  %7 = load ptr, ptr %6, align 8
  %.not2.i = icmp eq ptr %7, null
  %or.cond10.i = select i1 %or.cond.i, i1 %.not2.i, i1 false
  %8 = getelementptr inbounds nuw i8, ptr %0, i64 1376
  %9 = load ptr, ptr %8, align 8
  %.not3.i = icmp eq ptr %9, null
  %or.cond12.i = select i1 %or.cond10.i, i1 %.not3.i, i1 false
  %10 = getelementptr inbounds nuw i8, ptr %0, i64 1344
  %11 = load ptr, ptr %10, align 8
  %.not4.i = icmp eq ptr %11, null
  %or.cond14.i = select i1 %or.cond12.i, i1 %.not4.i, i1 false
  %12 = getelementptr inbounds nuw i8, ptr %0, i64 1352
  %13 = load ptr, ptr %12, align 8
  %.not5.i = icmp eq ptr %13, null
  %or.cond16.i = select i1 %or.cond14.i, i1 %.not5.i, i1 false
  %14 = getelementptr inbounds nuw i8, ptr %0, i64 1360
  %15 = load ptr, ptr %14, align 8
  %.not6.i = icmp eq ptr %15, null
  %or.cond18.i = select i1 %or.cond16.i, i1 %.not6.i, i1 false
  %16 = getelementptr inbounds nuw i8, ptr %0, i64 1368
  %17 = load ptr, ptr %16, align 8
  %.not7.i = icmp eq ptr %17, null
  %or.cond20.i = select i1 %or.cond18.i, i1 %.not7.i, i1 false
  br i1 %or.cond20.i, label %18, label %_ZNK6casadi8External16any_symbol_foundEv.exit

18:                                               ; preds = %1
  %19 = getelementptr inbounds nuw i8, ptr %0, i64 1384
  %20 = load ptr, ptr %19, align 8, !tbaa !161
  %21 = icmp eq ptr %20, null
  br label %_ZNK6casadi8External16any_symbol_foundEv.exit

_ZNK6casadi8External16any_symbol_foundEv.exit:    ; preds = %1, %18
  %.not6 = phi i1 [ false, %1 ], [ %21, %18 ]
  %22 = getelementptr inbounds nuw i8, ptr %0, i64 1520
  %23 = load ptr, ptr %22, align 8
  %.not = icmp eq ptr %23, null
  %or.cond = select i1 %.not6, i1 %.not, i1 false
  %24 = getelementptr inbounds nuw i8, ptr %0, i64 1528
  %25 = load ptr, ptr %24, align 8
  %.not1 = icmp eq ptr %25, null
  %or.cond9 = select i1 %or.cond, i1 %.not1, i1 false
  %26 = getelementptr inbounds nuw i8, ptr %0, i64 1544
  %27 = load ptr, ptr %26, align 8
  %.not2 = icmp eq ptr %27, null
  %or.cond11 = select i1 %or.cond9, i1 %.not2, i1 false
  %28 = getelementptr inbounds nuw i8, ptr %0, i64 1552
  %29 = load ptr, ptr %28, align 8
  %.not3 = icmp eq ptr %29, null
  %or.cond13 = select i1 %or.cond11, i1 %.not3, i1 false
  %30 = getelementptr inbounds nuw i8, ptr %0, i64 488
  %31 = load ptr, ptr %30, align 8
  %.not4 = icmp eq ptr %31, null
  %or.cond15 = select i1 %or.cond13, i1 %.not4, i1 false
  %32 = getelementptr inbounds nuw i8, ptr %0, i64 496
  %33 = load ptr, ptr %32, align 8
  %.not5 = icmp eq ptr %33, null
  %or.cond17 = select i1 %or.cond15, i1 %.not5, i1 false
  br i1 %or.cond17, label %34, label %38

34:                                               ; preds = %_ZNK6casadi8External16any_symbol_foundEv.exit
  %35 = getelementptr inbounds nuw i8, ptr %0, i64 480
  %36 = load ptr, ptr %35, align 8, !tbaa !196
  %37 = icmp ne ptr %36, null
  br label %38

38:                                               ; preds = %34, %_ZNK6casadi8External16any_symbol_foundEv.exit
  %39 = phi i1 [ true, %_ZNK6casadi8External16any_symbol_foundEv.exit ], [ %37, %34 ]
  ret i1 %39
}